target datalayout = "e-m:e-p270:32:32-p271:32:32-p272:64:64-i64:64-i128:128-f80:128-n8:16:32:64-S128"
target triple = "x86_64-pc-linux-gnu"

%struct.AVFilterContext = type { ptr, ptr, ptr, ptr, ptr, i32, ptr, ptr, i32, ptr, ptr, i32, i32, ptr, ptr, ptr, ptr, i32, ptr, i32, i32 }
%struct.HWUploadContext = type { ptr, ptr, ptr, ptr, ptr }
%struct.AVFilterFormatsConfig = type { ptr, ptr, ptr, ptr, ptr }
%struct.AVFilterLink = type { ptr, ptr, ptr, ptr, i32, i32, i32, i32, %struct.AVRational, i32, i32, i32, %struct.AVChannelLayout, %struct.AVRational, ptr, i32, %struct.AVFilterFormatsConfig, %struct.AVFilterFormatsConfig }
%struct.AVChannelLayout = type { i32, i32, %union.anon.1, ptr }
%union.anon.1 = type { i64 }
%struct.AVRational = type { i32, i32 }
%struct.FilterLink = type { %struct.AVFilterLink, ptr, i64, i64, i32, i32, i64, i64, i64, i64, %struct.AVRational, ptr }
%struct.AVBufferRef = type { ptr, ptr, i64 }
%struct.AVHWFramesContext = type { ptr, ptr, ptr, ptr, ptr, ptr, ptr, i32, i32, i32, i32, i32 }

@.str.5 = private unnamed_addr constant [27 x i8] c"No input hwframe context.\0A\00", align 1
@.str.6 = private unnamed_addr constant [23 x i8] c"Surface format is %s.\0A\00", align 1

; Function Attrs: inlinehint nounwind uwtable
define internal ptr @ff_filter_link(ptr noundef %0) #4 {
  %2 = alloca ptr, align 8
  store ptr %0, ptr %2, align 8, !tbaa !44
  %3 = load ptr, ptr %2, align 8, !tbaa !44
  ret ptr %3
}

; Function Attrs: nounwind uwtable
define internal i32 @hwupload_config_output(ptr noundef %0) #0 {
  %2 = alloca i32, align 4
  %3 = alloca ptr, align 8
  %4 = alloca ptr, align 8
  %5 = alloca ptr, align 8
  %6 = alloca ptr, align 8
  %7 = alloca ptr, align 8
  %8 = alloca ptr, align 8
  %9 = alloca i32, align 4
  %10 = alloca i32, align 4
  %11 = alloca ptr, align 8
  store ptr %0, ptr %3, align 8, !tbaa !44
  call void @llvm.lifetime.start.p0(i64 8, ptr %4) #5
  %12 = load ptr, ptr %3, align 8, !tbaa !44
  %13 = call ptr @ff_filter_link(ptr noundef %12)
  store ptr %13, ptr %4, align 8, !tbaa !67
  call void @llvm.lifetime.start.p0(i64 8, ptr %5) #5
  %14 = load ptr, ptr %3, align 8, !tbaa !44
  %15 = getelementptr inbounds nuw %struct.AVFilterLink, ptr %14, i32 0, i32 0
  %16 = load ptr, ptr %15, align 8, !tbaa !69
  store ptr %16, ptr %5, align 8, !tbaa !4
  call void @llvm.lifetime.start.p0(i64 8, ptr %6) #5
  %17 = load ptr, ptr %5, align 8, !tbaa !4
  %18 = getelementptr inbounds nuw %struct.AVFilterContext, ptr %17, i32 0, i32 4
  %19 = load ptr, ptr %18, align 8, !tbaa !70
  %20 = getelementptr inbounds ptr, ptr %19, i64 0
  %21 = load ptr, ptr %20, align 8, !tbaa !44
  store ptr %21, ptr %6, align 8, !tbaa !44
  call void @llvm.lifetime.start.p0(i64 8, ptr %7) #5
  %22 = load ptr, ptr %6, align 8, !tbaa !44
  %23 = call ptr @ff_filter_link(ptr noundef %22)
  store ptr %23, ptr %7, align 8, !tbaa !67
  call void @llvm.lifetime.start.p0(i64 8, ptr %8) #5
  %24 = load ptr, ptr %5, align 8, !tbaa !4
  %25 = getelementptr inbounds nuw %struct.AVFilterContext, ptr %24, i32 0, i32 9
  %26 = load ptr, ptr %25, align 8, !tbaa !9
  store ptr %26, ptr %8, align 8, !tbaa !22
  call void @llvm.lifetime.start.p0(i64 4, ptr %9) #5
  %27 = load ptr, ptr %8, align 8, !tbaa !22
  %28 = getelementptr inbounds nuw %struct.HWUploadContext, ptr %27, i32 0, i32 2
  call void @av_buffer_unref(ptr noundef %28)
  %29 = load ptr, ptr %6, align 8, !tbaa !44
  %30 = getelementptr inbounds nuw %struct.AVFilterLink, ptr %29, i32 0, i32 5
  %31 = load i32, ptr %30, align 4, !tbaa !62
  %32 = load ptr, ptr %3, align 8, !tbaa !44
  %33 = getelementptr inbounds nuw %struct.AVFilterLink, ptr %32, i32 0, i32 5
  %34 = load i32, ptr %33, align 4, !tbaa !62
  %35 = icmp eq i32 %31, %34
  br i1 %35, label %36, label %56

36:                                               ; preds = %1
  %37 = load ptr, ptr %7, align 8, !tbaa !67
  %38 = getelementptr inbounds nuw %struct.FilterLink, ptr %37, i32 0, i32 11
  %39 = load ptr, ptr %38, align 8, !tbaa !71
  %40 = icmp ne ptr %39, null
  br i1 %40, label %43, label %41

41:                                               ; preds = %36
  %42 = load ptr, ptr %8, align 8, !tbaa !22
  call void (ptr, i32, ptr, ...) @av_log(ptr noundef %42, i32 noundef 16, ptr noundef @.str.5)
  store i32 -22, ptr %2, align 4
  store i32 1, ptr %10, align 4
  br label %166

43:                                               ; preds = %36
  %44 = load ptr, ptr %7, align 8, !tbaa !67
  %45 = getelementptr inbounds nuw %struct.FilterLink, ptr %44, i32 0, i32 11
  %46 = load ptr, ptr %45, align 8, !tbaa !71
  %47 = call ptr @av_buffer_ref(ptr noundef %46)
  %48 = load ptr, ptr %4, align 8, !tbaa !67
  %49 = getelementptr inbounds nuw %struct.FilterLink, ptr %48, i32 0, i32 11
  store ptr %47, ptr %49, align 8, !tbaa !71
  %50 = load ptr, ptr %4, align 8, !tbaa !67
  %51 = getelementptr inbounds nuw %struct.FilterLink, ptr %50, i32 0, i32 11
  %52 = load ptr, ptr %51, align 8, !tbaa !71
  %53 = icmp ne ptr %52, null
  br i1 %53, label %55, label %54

54:                                               ; preds = %43
  store i32 -12, ptr %2, align 4
  store i32 1, ptr %10, align 4
  br label %166

55:                                               ; preds = %43
  store i32 0, ptr %2, align 4
  store i32 1, ptr %10, align 4
  br label %166

56:                                               ; preds = %1
  %57 = load ptr, ptr %8, align 8, !tbaa !22
  %58 = getelementptr inbounds nuw %struct.HWUploadContext, ptr %57, i32 0, i32 1
  %59 = load ptr, ptr %58, align 8, !tbaa !29
  %60 = call ptr @av_hwframe_ctx_alloc(ptr noundef %59)
  %61 = load ptr, ptr %8, align 8, !tbaa !22
  %62 = getelementptr inbounds nuw %struct.HWUploadContext, ptr %61, i32 0, i32 2
  store ptr %60, ptr %62, align 8, !tbaa !73
  %63 = load ptr, ptr %8, align 8, !tbaa !22
  %64 = getelementptr inbounds nuw %struct.HWUploadContext, ptr %63, i32 0, i32 2
  %65 = load ptr, ptr %64, align 8, !tbaa !73
  %66 = icmp ne ptr %65, null
  br i1 %66, label %68, label %67

67:                                               ; preds = %56
  store i32 -12, ptr %2, align 4
  store i32 1, ptr %10, align 4
  br label %166

68:                                               ; preds = %56
  %69 = load ptr, ptr %8, align 8, !tbaa !22
  %70 = getelementptr inbounds nuw %struct.HWUploadContext, ptr %69, i32 0, i32 2
  %71 = load ptr, ptr %70, align 8, !tbaa !73
  %72 = getelementptr inbounds nuw %struct.AVBufferRef, ptr %71, i32 0, i32 1
  %73 = load ptr, ptr %72, align 8, !tbaa !74
  %74 = load ptr, ptr %8, align 8, !tbaa !22
  %75 = getelementptr inbounds nuw %struct.HWUploadContext, ptr %74, i32 0, i32 3
  store ptr %73, ptr %75, align 8, !tbaa !77
  %76 = load ptr, ptr %8, align 8, !tbaa !22
  %77 = load ptr, ptr %6, align 8, !tbaa !44
  %78 = getelementptr inbounds nuw %struct.AVFilterLink, ptr %77, i32 0, i32 5
  %79 = load i32, ptr %78, align 4, !tbaa !62
  %80 = call ptr @av_get_pix_fmt_name(i32 noundef %79)
  call void (ptr, i32, ptr, ...) @av_log(ptr noundef %76, i32 noundef 48, ptr noundef @.str.6, ptr noundef %80)
  %81 = load ptr, ptr %3, align 8, !tbaa !44
  %82 = getelementptr inbounds nuw %struct.AVFilterLink, ptr %81, i32 0, i32 5
  %83 = load i32, ptr %82, align 4, !tbaa !62
  %84 = load ptr, ptr %8, align 8, !tbaa !22
  %85 = getelementptr inbounds nuw %struct.HWUploadContext, ptr %84, i32 0, i32 3
  %86 = load ptr, ptr %85, align 8, !tbaa !77
  %87 = getelementptr inbounds nuw %struct.AVHWFramesContext, ptr %86, i32 0, i32 8
  store i32 %83, ptr %87, align 4, !tbaa !78
  %88 = load ptr, ptr %7, align 8, !tbaa !67
  %89 = getelementptr inbounds nuw %struct.FilterLink, ptr %88, i32 0, i32 11
  %90 = load ptr, ptr %89, align 8, !tbaa !71
  %91 = icmp ne ptr %90, null
  br i1 %91, label %92, label %105

92:                                               ; preds = %68
  call void @llvm.lifetime.start.p0(i64 8, ptr %11) #5
  %93 = load ptr, ptr %7, align 8, !tbaa !67
  %94 = getelementptr inbounds nuw %struct.FilterLink, ptr %93, i32 0, i32 11
  %95 = load ptr, ptr %94, align 8, !tbaa !71
  %96 = getelementptr inbounds nuw %struct.AVBufferRef, ptr %95, i32 0, i32 1
  %97 = load ptr, ptr %96, align 8, !tbaa !74
  store ptr %97, ptr %11, align 8, !tbaa !82
  %98 = load ptr, ptr %11, align 8, !tbaa !82
  %99 = getelementptr inbounds nuw %struct.AVHWFramesContext, ptr %98, i32 0, i32 9
  %100 = load i32, ptr %99, align 8, !tbaa !83
  %101 = load ptr, ptr %8, align 8, !tbaa !22
  %102 = getelementptr inbounds nuw %struct.HWUploadContext, ptr %101, i32 0, i32 3
  %103 = load ptr, ptr %102, align 8, !tbaa !77
  %104 = getelementptr inbounds nuw %struct.AVHWFramesContext, ptr %103, i32 0, i32 9
  store i32 %100, ptr %104, align 8, !tbaa !83
  call void @llvm.lifetime.end.p0(i64 8, ptr %11) #5
  br label %113

105:                                              ; preds = %68
  %106 = load ptr, ptr %6, align 8, !tbaa !44
  %107 = getelementptr inbounds nuw %struct.AVFilterLink, ptr %106, i32 0, i32 5
  %108 = load i32, ptr %107, align 4, !tbaa !62
  %109 = load ptr, ptr %8, align 8, !tbaa !22
  %110 = getelementptr inbounds nuw %struct.HWUploadContext, ptr %109, i32 0, i32 3
  %111 = load ptr, ptr %110, align 8, !tbaa !77
  %112 = getelementptr inbounds nuw %struct.AVHWFramesContext, ptr %111, i32 0, i32 9
  store i32 %108, ptr %112, align 8, !tbaa !83
  br label %113

113:                                              ; preds = %105, %92
  %114 = load ptr, ptr %6, align 8, !tbaa !44
  %115 = getelementptr inbounds nuw %struct.AVFilterLink, ptr %114, i32 0, i32 6
  %116 = load i32, ptr %115, align 8, !tbaa !63
  %117 = load ptr, ptr %8, align 8, !tbaa !22
  %118 = getelementptr inbounds nuw %struct.HWUploadContext, ptr %117, i32 0, i32 3
  %119 = load ptr, ptr %118, align 8, !tbaa !77
  %120 = getelementptr inbounds nuw %struct.AVHWFramesContext, ptr %119, i32 0, i32 10
  store i32 %116, ptr %120, align 4, !tbaa !84
  %121 = load ptr, ptr %6, align 8, !tbaa !44
  %122 = getelementptr inbounds nuw %struct.AVFilterLink, ptr %121, i32 0, i32 7
  %123 = load i32, ptr %122, align 4, !tbaa !64
  %124 = load ptr, ptr %8, align 8, !tbaa !22
  %125 = getelementptr inbounds nuw %struct.HWUploadContext, ptr %124, i32 0, i32 3
  %126 = load ptr, ptr %125, align 8, !tbaa !77
  %127 = getelementptr inbounds nuw %struct.AVHWFramesContext, ptr %126, i32 0, i32 11
  store i32 %123, ptr %127, align 8, !tbaa !85
  %128 = load ptr, ptr %5, align 8, !tbaa !4
  %129 = getelementptr inbounds nuw %struct.AVFilterContext, ptr %128, i32 0, i32 20
  %130 = load i32, ptr %129, align 4, !tbaa !86
  %131 = icmp sge i32 %130, 0
  br i1 %131, label %132, label %141

132:                                              ; preds = %113
  %133 = load ptr, ptr %5, align 8, !tbaa !4
  %134 = getelementptr inbounds nuw %struct.AVFilterContext, ptr %133, i32 0, i32 20
  %135 = load i32, ptr %134, align 4, !tbaa !86
  %136 = add nsw i32 2, %135
  %137 = load ptr, ptr %8, align 8, !tbaa !22
  %138 = getelementptr inbounds nuw %struct.HWUploadContext, ptr %137, i32 0, i32 3
  %139 = load ptr, ptr %138, align 8, !tbaa !77
  %140 = getelementptr inbounds nuw %struct.AVHWFramesContext, ptr %139, i32 0, i32 7
  store i32 %136, ptr %140, align 8, !tbaa !87
  br label %141

141:                                              ; preds = %132, %113
  %142 = load ptr, ptr %8, align 8, !tbaa !22
  %143 = getelementptr inbounds nuw %struct.HWUploadContext, ptr %142, i32 0, i32 2
  %144 = load ptr, ptr %143, align 8, !tbaa !73
  %145 = call i32 @av_hwframe_ctx_init(ptr noundef %144)
  store i32 %145, ptr %9, align 4, !tbaa !28
  %146 = load i32, ptr %9, align 4, !tbaa !28
  %147 = icmp slt i32 %146, 0
  br i1 %147, label %148, label %149

148:                                              ; preds = %141
  br label %162

149:                                              ; preds = %141
  %150 = load ptr, ptr %8, align 8, !tbaa !22
  %151 = getelementptr inbounds nuw %struct.HWUploadContext, ptr %150, i32 0, i32 2
  %152 = load ptr, ptr %151, align 8, !tbaa !73
  %153 = call ptr @av_buffer_ref(ptr noundef %152)
  %154 = load ptr, ptr %4, align 8, !tbaa !67
  %155 = getelementptr inbounds nuw %struct.FilterLink, ptr %154, i32 0, i32 11
  store ptr %153, ptr %155, align 8, !tbaa !71
  %156 = load ptr, ptr %4, align 8, !tbaa !67
  %157 = getelementptr inbounds nuw %struct.FilterLink, ptr %156, i32 0, i32 11
  %158 = load ptr, ptr %157, align 8, !tbaa !71
  %159 = icmp ne ptr %158, null
  br i1 %159, label %161, label %160

160:                                              ; preds = %149
  store i32 -12, ptr %9, align 4, !tbaa !28
  br label %162

161:                                              ; preds = %149
  store i32 0, ptr %2, align 4
  store i32 1, ptr %10, align 4
  br label %166

162:                                              ; preds = %160, %148
  %163 = load ptr, ptr %8, align 8, !tbaa !22
  %164 = getelementptr inbounds nuw %struct.HWUploadContext, ptr %163, i32 0, i32 2
  call void @av_buffer_unref(ptr noundef %164)
  %165 = load i32, ptr %9, align 4, !tbaa !28
  store i32 %165, ptr %2, align 4
  store i32 1, ptr %10, align 4
  br label %166

166:                                              ; preds = %162, %161, %67, %55, %54, %41
  call void @llvm.lifetime.end.p0(i64 4, ptr %9) #5
  call void @llvm.lifetime.end.p0(i64 8, ptr %8) #5
  call void @llvm.lifetime.end.p0(i64 8, ptr %7) #5
  call void @llvm.lifetime.end.p0(i64 8, ptr %6) #5
  call void @llvm.lifetime.end.p0(i64 8, ptr %5) #5
  call void @llvm.lifetime.end.p0(i64 8, ptr %4) #5
  %167 = load i32, ptr %2, align 4
  ret i32 %167
}