; Function Attrs: nounwind uwtable
define internal range(i32 -2147483648, 1) i32 @hwupload_config_output(ptr noundef captures(none) %0) #0 {
  %2 = load ptr, ptr %0, align 8, !tbaa !61
  %3 = getelementptr inbounds nuw i8, ptr %2, i64 32
  %4 = load ptr, ptr %3, align 8, !tbaa !62
  %5 = load ptr, ptr %4, align 8, !tbaa !48
  %6 = getelementptr inbounds nuw i8, ptr %2, i64 72
  %7 = load ptr, ptr %6, align 8, !tbaa !4
  %8 = getelementptr inbounds nuw i8, ptr %7, i64 16
  tail call void @av_buffer_unref(ptr noundef nonnull %8) #5
  %9 = getelementptr inbounds nuw i8, ptr %5, i64 36
  %10 = load i32, ptr %9, align 4, !tbaa !56
  %11 = getelementptr inbounds nuw i8, ptr %0, i64 36
  %12 = load i32, ptr %11, align 4, !tbaa !56
  %13 = icmp eq i32 %10, %12
  br i1 %13, label %14, label %21

14:                                               ; preds = %1
  %15 = getelementptr inbounds nuw i8, ptr %5, i64 272
  %16 = load ptr, ptr %15, align 8, !tbaa !63
  %.not50 = icmp eq ptr %16, null
  br i1 %.not50, label %17, label %18

17:                                               ; preds = %14
  tail call void (ptr, i32, ptr, ...) @av_log(ptr noundef nonnull %7, i32 noundef 16, ptr noundef nonnull @.str.5) #5
  br label %63

18:                                               ; preds = %14
  %19 = tail call ptr @av_buffer_ref(ptr noundef nonnull %16) #5
  %20 = getelementptr inbounds nuw i8, ptr %0, i64 272
  store ptr %19, ptr %20, align 8, !tbaa !63
  %.not51 = icmp eq ptr %19, null
  %. = select i1 %.not51, i32 -12, i32 0
  br label %63

21:                                               ; preds = %1
  %22 = getelementptr inbounds nuw i8, ptr %7, i64 8
  %23 = load ptr, ptr %22, align 8, !tbaa !24
  %24 = tail call ptr @av_hwframe_ctx_alloc(ptr noundef %23) #5
  store ptr %24, ptr %8, align 8, !tbaa !65
  %.not = icmp eq ptr %24, null
  br i1 %.not, label %63, label %25

25:                                               ; preds = %21
  %26 = getelementptr inbounds nuw i8, ptr %24, i64 8
  %27 = load ptr, ptr %26, align 8, !tbaa !66
  %28 = getelementptr inbounds nuw i8, ptr %7, i64 24
  store ptr %27, ptr %28, align 8, !tbaa !69
  %29 = load i32, ptr %9, align 4, !tbaa !56
  %30 = tail call ptr @av_get_pix_fmt_name(i32 noundef %29) #5
  tail call void (ptr, i32, ptr, ...) @av_log(ptr noundef nonnull %7, i32 noundef 48, ptr noundef nonnull @.str.6, ptr noundef %30) #5
  %31 = load i32, ptr %11, align 4, !tbaa !56
  %32 = load ptr, ptr %28, align 8, !tbaa !69
  %33 = getelementptr inbounds nuw i8, ptr %32, i64 60
  store i32 %31, ptr %33, align 4, !tbaa !70
  %34 = getelementptr inbounds nuw i8, ptr %5, i64 272
  %35 = load ptr, ptr %34, align 8, !tbaa !63
  %.not48 = icmp eq ptr %35, null
  br i1 %.not48, label %40, label %36

36:                                               ; preds = %25
  %37 = getelementptr inbounds nuw i8, ptr %35, i64 8
  %38 = load ptr, ptr %37, align 8, !tbaa !66
  %39 = getelementptr inbounds nuw i8, ptr %38, i64 64
  br label %40

40:                                               ; preds = %25, %36
  %.sink.in = phi ptr [ %39, %36 ], [ %9, %25 ]
  %.sink = load i32, ptr %.sink.in, align 4, !tbaa !32
  %41 = getelementptr inbounds nuw i8, ptr %32, i64 64
  store i32 %.sink, ptr %41, align 8, !tbaa !74
  %42 = getelementptr inbounds nuw i8, ptr %5, i64 40
  %43 = load i32, ptr %42, align 8, !tbaa !57
  %44 = getelementptr inbounds nuw i8, ptr %32, i64 68
  store i32 %43, ptr %44, align 4, !tbaa !75
  %45 = getelementptr inbounds nuw i8, ptr %5, i64 44
  %46 = load i32, ptr %45, align 4, !tbaa !58
  %47 = getelementptr inbounds nuw i8, ptr %32, i64 72
  store i32 %46, ptr %47, align 8, !tbaa !76
  %48 = getelementptr inbounds nuw i8, ptr %2, i64 148
  %49 = load i32, ptr %48, align 4, !tbaa !77
  %50 = icmp sgt i32 %49, -1
  br i1 %50, label %51, label %54

51:                                               ; preds = %40
  %52 = add nuw nsw i32 %49, 2
  %53 = getelementptr inbounds nuw i8, ptr %32, i64 56
  store i32 %52, ptr %53, align 8, !tbaa !78
  br label %54

54:                                               ; preds = %51, %40
  %55 = load ptr, ptr %8, align 8, !tbaa !65
  %56 = tail call i32 @av_hwframe_ctx_init(ptr noundef %55) #5
  %57 = icmp slt i32 %56, 0
  br i1 %57, label %62, label %58

58:                                               ; preds = %54
  %59 = load ptr, ptr %8, align 8, !tbaa !65
  %60 = tail call ptr @av_buffer_ref(ptr noundef %59) #5
  %61 = getelementptr inbounds nuw i8, ptr %0, i64 272
  store ptr %60, ptr %61, align 8, !tbaa !63
  %.not49 = icmp eq ptr %60, null
  br i1 %.not49, label %62, label %63

62:                                               ; preds = %58, %54
  %.042 = phi i32 [ %56, %54 ], [ -12, %58 ]
  tail call void @av_buffer_unref(ptr noundef nonnull %8) #5
  br label %63

63:                                               ; preds = %58, %21, %18, %62, %17
  %.0 = phi i32 [ -22, %17 ], [ %.042, %62 ], [ %., %18 ], [ -12, %21 ], [ 0, %58 ]
  ret i32 %.0
}